Certificate:
    Data:
        Version: 3 (0x2)
        Serial Number: 0 (0x0)
        Signature Algorithm: sha1WithRSAEncryption
        Issuer: C=UK, O=eScience, OU=Authority, CN=CA, Email=ca-operator@grid-support.ac.uk
        Validity
            Not Before: Aug  5 10:36:41 2002 GMT
            Not After : Aug  4 10:36:41 2007 GMT
        Subject: C=UK, O=eScience, OU=Authority, CN=CA, Email=ca-operator@grid-support.ac.uk
        Subject Public Key Info:
            Public Key Algorithm: rsaEncryption
            RSA Public Key: (2048 bit)
                Modulus (2048 bit):
                    00:e7:a0:25:1e:fd:f6:35:27:f8:5d:3e:d8:04:ce:
                    53:b1:00:c0:4f:d9:6c:1d:e0:33:2c:a5:8d:b6:a9:
                    75:37:f0:69:9a:f1:31:31:0b:5d:44:2b:3e:9b:04:
                    91:2a:16:a4:80:bc:d6:98:d0:55:62:93:33:a4:bd:
                    0c:1b:a6:0f:c1:e7:51:77:82:40:53:1e:19:2e:13:
                    65:de:26:81:36:d2:57:fc:9f:bc:4e:7f:0c:21:95:
                    ff:d6:e2:82:84:a9:83:55:41:8a:1f:e2:7b:92:08:
                    2c:d0:be:ca:93:52:d0:37:e5:6d:61:40:96:4a:f0:
                    72:d9:5f:03:4d:93:af:8c:7e:b5:8d:21:b5:e4:55:
                    e8:4f:26:8d:22:31:b2:13:08:63:d3:b2:b8:95:4e:
                    0c:02:1a:2d:be:b9:32:12:da:55:04:91:b1:4b:e7:
                    aa:35:38:a4:c7:5e:e9:8d:d3:74:18:86:f0:fb:8a:
                    c4:36:aa:62:52:e6:32:35:e9:59:c7:65:ca:26:51:
                    06:e9:fd:1f:0f:9f:7c:d8:50:7b:3e:80:13:e0:77:
                    4c:a7:1d:ed:8a:ce:b3:4c:1c:60:35:ba:a3:1b:ae:
                    a8:ce:76:42:49:e4:50:fc:26:0f:18:e2:de:48:6b:
                    7f:af:2d:ae:5a:81:94:a0:4f:c4:09:03:7b:07:31:
                    3f:a1
                Exponent: 65537 (0x10001)
        X509v3 extensions:
            X509v3 Basic Constraints: critical
                CA:TRUE
            X509v3 Subject Key Identifier: 
                02:38:AB:11:A3:96:80:8B:0D:D3:15:2B:08:A5:8E:30:DA:B2:DA:A8
            X509v3 Authority Key Identifier: 
                keyid:02:38:AB:11:A3:96:80:8B:0D:D3:15:2B:08:A5:8E:30:DA:B2:DA:A8
                DirName:/C=UK/O=eScience/OU=Authority/CN=CA/Email=ca-operator@grid-support.ac.uk
                serial:00

            X509v3 Key Usage: critical
                Certificate Sign, CRL Sign
            Netscape Cert Type: 
                SSL CA, S/MIME CA
            X509v3 Subject Alternative Name: 
                email:ca-operator@grid-support.ac.uk
            X509v3 Issuer Alternative Name: 
                email:ca-operator@grid-support.ac.uk
            X509v3 CRL Distribution Points: 
                URI:http://ca.grid-support.ac.uk/cgi-bin/importCRL

    Signature Algorithm: sha1WithRSAEncryption
        69:40:13:42:10:7e:16:fd:c1:66:d4:cd:8c:21:56:c3:7a:96:
        f6:fa:04:69:aa:db:e1:8b:fe:06:48:02:2f:99:d1:21:d9:e3:
        34:07:96:a2:fa:67:a8:3c:7f:d1:3b:10:39:69:02:bf:40:ca:
        71:f2:52:f0:52:b2:43:98:35:26:d7:8d:a0:e1:30:e7:4c:f3:
        d9:b0:c5:1d:42:a2:76:25:a6:93:fb:5e:41:c7:78:f2:5a:fa:
        5c:b5:80:2a:c8:69:e7:8e:84:02:b6:74:6e:8d:06:a4:10:86:
        4f:29:f3:40:52:78:d8:ea:4f:94:40:0b:d3:24:b6:8c:fb:4b:
        ae:5e:1d:5e:51:4e:65:be:fa:b6:5c:20:97:60:50:08:cc:b8:
        cb:f6:bb:42:dd:2d:fa:7e:e9:44:65:3a:ce:39:53:e3:fd:b6:
        0d:a0:6f:63:8e:df:70:56:f9:1f:ae:84:0c:a2:aa:c9:7b:89:
        f9:77:95:a8:4e:c1:18:e9:e9:9f:f5:ae:cd:7e:bc:79:3f:3d:
        97:4c:e3:cf:c3:09:4f:90:29:41:c1:a0:99:bc:36:75:16:16:
        61:68:5e:3e:21:71:6a:2c:dc:25:27:7c:43:0d:2f:ed:53:83:
        07:ed:84:25:2e:c2:a6:1e:70:02:02:0a:a1:70:93:80:81:17:
        10:76:2e:fa
-----BEGIN CERTIFICATE-----
MIIE6DCCA9CgAwIBAgIBADANBgkqhkiG9w0BAQUFADBwMQswCQYDVQQGEwJVSzER
MA8GA1UEChMIZVNjaWVuY2UxEjAQBgNVBAsTCUF1dGhvcml0eTELMAkGA1UEAxMC
Q0ExLTArBgkqhkiG9w0BCQEWHmNhLW9wZXJhdG9yQGdyaWQtc3VwcG9ydC5hYy51
azAeFw0wMjA4MDUxMDM2NDFaFw0wNzA4MDQxMDM2NDFaMHAxCzAJBgNVBAYTAlVL
MREwDwYDVQQKEwhlU2NpZW5jZTESMBAGA1UECxMJQXV0aG9yaXR5MQswCQYDVQQD
EwJDQTEtMCsGCSqGSIb3DQEJARYeY2Etb3BlcmF0b3JAZ3JpZC1zdXBwb3J0LmFj
LnVrMIIBIjANBgkqhkiG9w0BAQEFAAOCAQ8AMIIBCgKCAQEA56AlHv32NSf4XT7Y
BM5TsQDAT9lsHeAzLKWNtql1N/BpmvExMQtdRCs+mwSRKhakgLzWmNBVYpMzpL0M
G6YPwedRd4JAUx4ZLhNl3iaBNtJX/J+8Tn8MIZX/1uKChKmDVUGKH+J7kggs0L7K
k1LQN+VtYUCWSvBy2V8DTZOvjH61jSG15FXoTyaNIjGyEwhj07K4lU4MAhotvrky
EtpVBJGxS+eqNTikx17pjdN0GIbw+4rENqpiUuYyNelZx2XKJlEG6f0fD5982FB7
PoAT4HdMpx3tis6zTBxgNbqjG66oznZCSeRQ/CYPGOLeSGt/ry2uWoGUoE/ECQN7
BzE/oQIDAQABo4IBizCCAYcwDwYDVR0TAQH/BAUwAwEB/zAdBgNVHQ4EFgQUAjir
EaOWgIsN0xUrCKWOMNqy2qgwgZoGA1UdIwSBkjCBj4AUAjirEaOWgIsN0xUrCKWO
MNqy2qihdKRyMHAxCzAJBgNVBAYTAlVLMREwDwYDVQQKEwhlU2NpZW5jZTESMBAG
A1UECxMJQXV0aG9yaXR5MQswCQYDVQQDEwJDQTEtMCsGCSqGSIb3DQEJARYeY2Et
b3BlcmF0b3JAZ3JpZC1zdXBwb3J0LmFjLnVrggEAMA4GA1UdDwEB/wQEAwIBBjAR
BglghkgBhvhCAQEEBAMCAQYwKQYDVR0RBCIwIIEeY2Etb3BlcmF0b3JAZ3JpZC1z
dXBwb3J0LmFjLnVrMCkGA1UdEgQiMCCBHmNhLW9wZXJhdG9yQGdyaWQtc3VwcG9y
dC5hYy51azA/BgNVHR8EODA2MDSgMqAwhi5odHRwOi8vY2EuZ3JpZC1zdXBwb3J0
LmFjLnVrL2NnaS1iaW4vaW1wb3J0Q1JMMA0GCSqGSIb3DQEBBQUAA4IBAQBpQBNC
EH4W/cFm1M2MIVbDepb2+gRpqtvhi/4GSAIvmdEh2eM0B5ai+meoPH/ROxA5aQK/
QMpx8lLwUrJDmDUm142g4TDnTPPZsMUdQqJ2JaaT+15Bx3jyWvpctYAqyGnnjoQC
tnRujQakEIZPKfNAUnjY6k+UQAvTJLaM+0uuXh1eUU5lvvq2XCCXYFAIzLjL9rtC
3S36fulEZTrOOVPj/bYNoG9jjt9wVvkfroQMoqrJe4n5d5WoTsEY6emf9a7Nfrx5
Pz2XTOPPwwlPkClBwaCZvDZ1FhZhaF4+IXFqLNwlJ3xDDS/tU4MH7YQlLsKmHnAC
AgqhcJOAgRcQdi76
-----END CERTIFICATE-----
